(lp0
(lp1
cnumpy.core.multiarray
scalar
p2
(cnumpy
dtype
p3
(S'f8'
p4
I0
I1
tp5
Rp6
(I3
S'<'
p7
NNNI-1
I-1
I0
tp8
bS'\xf3\xab<o=\x00\x80@'
p9
tp10
Rp11
ag2
(g6
S'z\xa1\xf0\xc7\x1f\x00\x80@'
p12
tp13
Rp14
aa(lp15
g2
(g6
S'\xdfS\x8b\t\xd7\xff\x7f@'
p16
tp17
Rp18
ag2
(g6
S'o9g[\xd3\xfe\x7f@'
p19
tp20
Rp21
aa.