(lp0
cnumpy.core.multiarray
scalar
p1
(cnumpy
dtype
p2
(S'f8'
p3
I0
I1
tp4
Rp5
(I3
S'<'
p6
NNNI-1
I-1
I0
tp7
bS'\n\xd7\xa3p=\x00\x80@'
p8
tp9
Rp10
ag1
(g5
S'\xa4p=\n\xd7\xff\x7f@'
p11
tp12
Rp13
a.(lp0
cnumpy.core.multiarray
scalar
p1
(cnumpy
dtype
p2
(S'f8'
p3
I0
I1
tp4
Rp5
(I3
S'<'
p6
NNNI-1
I-1
I0
tp7
bS'\n\xd7\xa3p=\x00\x80@'
p8
tp9
Rp10
ag1
(g5
S'\xa4p=\n\xd7\xff\x7f@'
p11
tp12
Rp13
a.